target datalayout = "e-m:e-p270:32:32-p271:32:32-p272:64:64-i64:64-i128:128-f80:128-n8:16:32:64-S128"
target triple = "x86_64-pc-linux-gnu"

%class.anon.604 = type { i8 }

@_ZZL20DOCTEST_ANON_FUNC_78vE9breakhits = internal global i32 0, align 4

; Function Attrs: mustprogress uwtable
define internal void @"_ZZZL20DOCTEST_ANON_FUNC_78vENK3$_0clEP9lua_StateENKUlS1_P9lua_DebugE0_clES1_S3_"(ptr noundef nonnull align 1 dereferenceable(1) %0, ptr noundef %1, ptr noundef %2) #4 align 2 {
  %4 = alloca ptr, align 8
  %5 = alloca ptr, align 8
  %6 = alloca ptr, align 8
  store ptr %0, ptr %4, align 8
  store ptr %1, ptr %5, align 8
  store ptr %2, ptr %6, align 8
  %7 = load i32, ptr @_ZZL20DOCTEST_ANON_FUNC_78vE9breakhits, align 4
  %8 = add nsw i32 %7, 1
  store i32 %8, ptr @_ZZL20DOCTEST_ANON_FUNC_78vE9breakhits, align 4
  %9 = load ptr, ptr %5, align 8
  %10 = call noundef ptr @_Z14lua_debugtraceP9lua_State(ptr noundef %9)
  %11 = load i32, ptr @_ZZL20DOCTEST_ANON_FUNC_78vE9breakhits, align 4
  %12 = srem i32 %11, 2
  %13 = icmp eq i32 %12, 1
  br i1 %13, label %14, label %17

14:                                               ; preds = %3
  %15 = load ptr, ptr %5, align 8
  %16 = call noundef i32 @_Z9lua_breakP9lua_State(ptr noundef %15)
  br label %17

17:                                               ; preds = %14, %3
  ret void
}

; Function Attrs: mustprogress uwtable
define internal void @"_ZZZL20DOCTEST_ANON_FUNC_78vENK3$_0clEP9lua_StateENUlS1_P9lua_DebugE0_8__invokeES1_S3_"(ptr noundef %0, ptr noundef %1) #4 align 2 {
  %3 = alloca ptr, align 8
  %4 = alloca ptr, align 8
  %5 = alloca %class.anon.604, align 1
  store ptr %0, ptr %3, align 8
  store ptr %1, ptr %4, align 8
  %6 = load ptr, ptr %3, align 8
  %7 = load ptr, ptr %4, align 8
  call void @"_ZZZL20DOCTEST_ANON_FUNC_78vENK3$_0clEP9lua_StateENKUlS1_P9lua_DebugE0_clES1_S3_"(ptr noundef nonnull align 1 dereferenceable(1) %5, ptr noundef %6, ptr noundef %7)
  ret void
}