; Function Attrs: mustprogress uwtable
define internal void @"_ZZZL20DOCTEST_ANON_FUNC_78vENK3$_0clEP9lua_StateENUlS1_P9lua_DebugE0_8__invokeES1_S3_"(ptr noundef %0, ptr nocapture readnone %1) #4 align 2 {
  %3 = load i32, ptr @_ZZL20DOCTEST_ANON_FUNC_78vE9breakhits, align 4
  %4 = add nsw i32 %3, 1
  store i32 %4, ptr @_ZZL20DOCTEST_ANON_FUNC_78vE9breakhits, align 4
  %5 = tail call noundef ptr @_Z14lua_debugtraceP9lua_State(ptr noundef %0)
  %6 = load i32, ptr @_ZZL20DOCTEST_ANON_FUNC_78vE9breakhits, align 4
  %7 = and i32 %6, -2147483647
  %8 = icmp eq i32 %7, 1
  br i1 %8, label %9, label %"_ZZZL20DOCTEST_ANON_FUNC_78vENK3$_0clEP9lua_StateENKUlS1_P9lua_DebugE0_clES1_S3_.exit"

9:                                                ; preds = %2
  %10 = tail call noundef i32 @_Z9lua_breakP9lua_State(ptr noundef %0)
  br label %"_ZZZL20DOCTEST_ANON_FUNC_78vENK3$_0clEP9lua_StateENKUlS1_P9lua_DebugE0_clES1_S3_.exit"

"_ZZZL20DOCTEST_ANON_FUNC_78vENK3$_0clEP9lua_StateENKUlS1_P9lua_DebugE0_clES1_S3_.exit": ; preds = %2, %9
  ret void
}